target datalayout = "e-m:e-p270:32:32-p271:32:32-p272:64:64-i64:64-i128:128-f80:128-n8:16:32:64-S128"
target triple = "x86_64-pc-linux-gnu"

%struct.strvec = type { ptr, i64, i64 }
%struct.credential_capability = type { i8, [3 x i8] }
%struct.credential = type { %struct.string_list, %struct.strvec, %struct.strvec, %struct.strvec, i16, [2 x i8], %struct.credential_capability, %struct.credential_capability, ptr, ptr, ptr, ptr, ptr, ptr, ptr, i64, ptr }
%struct.string_list = type { ptr, i64, i64, i8, ptr }
%struct.string_list_item = type { ptr, ptr }
%struct.timeval = type { i64, i64 }

@.str.24 = private unnamed_addr constant [6 x i8] c"store\00", align 1

; Function Attrs: nounwind uwtable
define dso_local void @credential_next_state(ptr noundef %0) #0 {
  %2 = alloca ptr, align 8
  %3 = alloca ptr, align 8
  %4 = alloca ptr, align 8
  %5 = alloca [24 x i8], align 16
  store ptr %0, ptr %2, align 8, !tbaa !4
  %6 = load ptr, ptr %2, align 8, !tbaa !4
  %7 = getelementptr inbounds nuw %struct.credential, ptr %6, i32 0, i32 3
  call void @strvec_clear(ptr noundef %7)
  br label %8

8:                                                ; preds = %1
  call void @llvm.lifetime.start.p0(i64 8, ptr %3) #10
  %9 = load ptr, ptr %2, align 8, !tbaa !4
  %10 = getelementptr inbounds nuw %struct.credential, ptr %9, i32 0, i32 2
  store ptr %10, ptr %3, align 8, !tbaa !26
  call void @llvm.lifetime.start.p0(i64 8, ptr %4) #10
  %11 = load ptr, ptr %2, align 8, !tbaa !4
  %12 = getelementptr inbounds nuw %struct.credential, ptr %11, i32 0, i32 3
  store ptr %12, ptr %4, align 8, !tbaa !26
  call void @llvm.lifetime.start.p0(i64 24, ptr %5) #10
  %13 = getelementptr inbounds [24 x i8], ptr %5, i64 0, i64 0
  %14 = load ptr, ptr %3, align 8, !tbaa !26
  call void @llvm.memcpy.p0.p0.i64(ptr align 16 %13, ptr align 1 %14, i64 24, i1 false)
  %15 = load ptr, ptr %3, align 8, !tbaa !26
  %16 = load ptr, ptr %4, align 8, !tbaa !26
  call void @llvm.memcpy.p0.p0.i64(ptr align 1 %15, ptr align 1 %16, i64 24, i1 false)
  %17 = load ptr, ptr %4, align 8, !tbaa !26
  %18 = getelementptr inbounds [24 x i8], ptr %5, i64 0, i64 0
  call void @llvm.memcpy.p0.p0.i64(ptr align 1 %17, ptr align 16 %18, i64 24, i1 false)
  call void @llvm.lifetime.end.p0(i64 24, ptr %5) #10
  call void @llvm.lifetime.end.p0(i64 8, ptr %4) #10
  call void @llvm.lifetime.end.p0(i64 8, ptr %3) #10
  br label %19

19:                                               ; preds = %8
  ret void
}

; Function Attrs: inlinehint nounwind uwtable
define internal i64 @git_time(ptr noundef %0) #7 {
  %2 = alloca ptr, align 8
  %3 = alloca %struct.timeval, align 8
  store ptr %0, ptr %2, align 8, !tbaa !63
  call void @llvm.lifetime.start.p0(i64 16, ptr %3) #10
  %4 = call i32 @gettimeofday(ptr noundef %3, ptr noundef null) #10
  %5 = load ptr, ptr %2, align 8, !tbaa !63
  %6 = icmp ne ptr %5, null
  br i1 %6, label %7, label %11

7:                                                ; preds = %1
  %8 = getelementptr inbounds nuw %struct.timeval, ptr %3, i32 0, i32 0
  %9 = load i64, ptr %8, align 8, !tbaa !65
  %10 = load ptr, ptr %2, align 8, !tbaa !63
  store i64 %9, ptr %10, align 8, !tbaa !40
  br label %11

11:                                               ; preds = %7, %1
  %12 = getelementptr inbounds nuw %struct.timeval, ptr %3, i32 0, i32 0
  %13 = load i64, ptr %12, align 8, !tbaa !65
  call void @llvm.lifetime.end.p0(i64 16, ptr %3) #10
  ret i64 %13
}

; Function Attrs: nounwind uwtable
define dso_local void @credential_approve(ptr noundef %0, ptr noundef %1) #0 {
  %3 = alloca ptr, align 8
  %4 = alloca ptr, align 8
  %5 = alloca i32, align 4
  %6 = alloca i32, align 4
  store ptr %0, ptr %3, align 8, !tbaa !47
  store ptr %1, ptr %4, align 8, !tbaa !4
  call void @llvm.lifetime.start.p0(i64 4, ptr %5) #10
  %7 = load ptr, ptr %4, align 8, !tbaa !4
  %8 = getelementptr inbounds nuw %struct.credential, ptr %7, i32 0, i32 4
  %9 = load i16, ptr %8, align 8
  %10 = lshr i16 %9, 1
  %11 = and i16 %10, 1
  %12 = zext i16 %11 to i32
  %13 = icmp ne i32 %12, 0
  br i1 %13, label %14, label %15

14:                                               ; preds = %2
  store i32 1, ptr %6, align 4
  br label %70

15:                                               ; preds = %2
  %16 = load ptr, ptr %4, align 8, !tbaa !4
  %17 = getelementptr inbounds nuw %struct.credential, ptr %16, i32 0, i32 8
  %18 = load ptr, ptr %17, align 8, !tbaa !21
  %19 = icmp ne ptr %18, null
  br i1 %19, label %20, label %25

20:                                               ; preds = %15
  %21 = load ptr, ptr %4, align 8, !tbaa !4
  %22 = getelementptr inbounds nuw %struct.credential, ptr %21, i32 0, i32 9
  %23 = load ptr, ptr %22, align 8, !tbaa !24
  %24 = icmp ne ptr %23, null
  br i1 %24, label %30, label %25

25:                                               ; preds = %20, %15
  %26 = load ptr, ptr %4, align 8, !tbaa !4
  %27 = getelementptr inbounds nuw %struct.credential, ptr %26, i32 0, i32 10
  %28 = load ptr, ptr %27, align 8, !tbaa !25
  %29 = icmp ne ptr %28, null
  br i1 %29, label %30, label %36

30:                                               ; preds = %25, %20
  %31 = load ptr, ptr %4, align 8, !tbaa !4
  %32 = getelementptr inbounds nuw %struct.credential, ptr %31, i32 0, i32 15
  %33 = load i64, ptr %32, align 8, !tbaa !37
  %34 = call i64 @git_time(ptr noundef null)
  %35 = icmp ult i64 %33, %34
  br i1 %35, label %36, label %37

36:                                               ; preds = %30, %25
  store i32 1, ptr %6, align 4
  br label %70

37:                                               ; preds = %30
  %38 = load ptr, ptr %4, align 8, !tbaa !4
  call void @credential_next_state(ptr noundef %38)
  %39 = load ptr, ptr %3, align 8, !tbaa !47
  %40 = load ptr, ptr %4, align 8, !tbaa !4
  call void @credential_apply_config(ptr noundef %39, ptr noundef %40)
  store i32 0, ptr %5, align 4, !tbaa !27
  br label %41

41:                                               ; preds = %61, %37
  %42 = load i32, ptr %5, align 4, !tbaa !27
  %43 = sext i32 %42 to i64
  %44 = load ptr, ptr %4, align 8, !tbaa !4
  %45 = getelementptr inbounds nuw %struct.credential, ptr %44, i32 0, i32 0
  %46 = getelementptr inbounds nuw %struct.string_list, ptr %45, i32 0, i32 1
  %47 = load i64, ptr %46, align 8, !tbaa !49
  %48 = icmp ult i64 %43, %47
  br i1 %48, label %49, label %64

49:                                               ; preds = %41
  %50 = load ptr, ptr %4, align 8, !tbaa !4
  %51 = load ptr, ptr %4, align 8, !tbaa !4
  %52 = getelementptr inbounds nuw %struct.credential, ptr %51, i32 0, i32 0
  %53 = getelementptr inbounds nuw %struct.string_list, ptr %52, i32 0, i32 0
  %54 = load ptr, ptr %53, align 8, !tbaa !50
  %55 = load i32, ptr %5, align 4, !tbaa !27
  %56 = sext i32 %55 to i64
  %57 = getelementptr inbounds %struct.string_list_item, ptr %54, i64 %56
  %58 = getelementptr inbounds nuw %struct.string_list_item, ptr %57, i32 0, i32 0
  %59 = load ptr, ptr %58, align 8, !tbaa !51
  %60 = call i32 @credential_do(ptr noundef %50, ptr noundef %59, ptr noundef @.str.24)
  br label %61

61:                                               ; preds = %49
  %62 = load i32, ptr %5, align 4, !tbaa !27
  %63 = add nsw i32 %62, 1
  store i32 %63, ptr %5, align 4, !tbaa !27
  br label %41, !llvm.loop !67

64:                                               ; preds = %41
  %65 = load ptr, ptr %4, align 8, !tbaa !4
  %66 = getelementptr inbounds nuw %struct.credential, ptr %65, i32 0, i32 4
  %67 = load i16, ptr %66, align 8
  %68 = and i16 %67, -3
  %69 = or i16 %68, 2
  store i16 %69, ptr %66, align 8
  store i32 0, ptr %6, align 4
  br label %70

70:                                               ; preds = %64, %36, %14
  call void @llvm.lifetime.end.p0(i64 4, ptr %5) #10
  %71 = load i32, ptr %6, align 4
  switch i32 %71, label %73 [
    i32 0, label %72
    i32 1, label %72
  ]

72:                                               ; preds = %70, %70
  ret void

73:                                               ; preds = %70
  unreachable
}