; Function Attrs: nounwind uwtable
define dso_local void @credential_approve(ptr noundef %0, ptr noundef %1) local_unnamed_addr #3 {
  %3 = alloca [24 x i8], align 16
  %4 = alloca %struct.timeval, align 8
  %5 = getelementptr inbounds nuw i8, ptr %1, i64 112
  %6 = load i16, ptr %5, align 8
  %7 = and i16 %6, 2
  %.not = icmp eq i16 %7, 0
  br i1 %.not, label %8, label %35

8:                                                ; preds = %2
  %9 = getelementptr inbounds nuw i8, ptr %1, i64 128
  %10 = load ptr, ptr %9, align 8, !tbaa !21
  %.not15 = icmp eq ptr %10, null
  br i1 %.not15, label %14, label %11

11:                                               ; preds = %8
  %12 = getelementptr inbounds nuw i8, ptr %1, i64 136
  %13 = load ptr, ptr %12, align 8, !tbaa !4
  %.not16 = icmp eq ptr %13, null
  br i1 %.not16, label %14, label %17

14:                                               ; preds = %11, %8
  %15 = getelementptr inbounds nuw i8, ptr %1, i64 144
  %16 = load ptr, ptr %15, align 8, !tbaa !17
  %.not17 = icmp eq ptr %16, null
  br i1 %.not17, label %35, label %17

17:                                               ; preds = %14, %11
  %18 = getelementptr inbounds nuw i8, ptr %1, i64 184
  %19 = load i64, ptr %18, align 8, !tbaa !29
  call void @llvm.lifetime.start.p0(i64 16, ptr nonnull %4) #19
  %20 = call i32 @gettimeofday(ptr noundef nonnull %4, ptr noundef null) #19
  %21 = load i64, ptr %4, align 8, !tbaa !43
  call void @llvm.lifetime.end.p0(i64 16, ptr nonnull %4) #19
  %22 = icmp ult i64 %19, %21
  br i1 %22, label %35, label %23

23:                                               ; preds = %17
  %24 = getelementptr inbounds nuw i8, ptr %1, i64 88
  tail call void @strvec_clear(ptr noundef nonnull %24) #19
  %25 = getelementptr inbounds nuw i8, ptr %1, i64 64
  call void @llvm.lifetime.start.p0(i64 24, ptr nonnull %3)
  call void @llvm.memcpy.p0.p0.i64(ptr noundef nonnull align 16 dereferenceable(24) %3, ptr noundef nonnull align 1 dereferenceable(24) %25, i64 24, i1 false)
  tail call void @llvm.memcpy.p0.p0.i64(ptr noundef nonnull align 1 dereferenceable(24) %25, ptr noundef nonnull align 1 dereferenceable(24) %24, i64 24, i1 false)
  call void @llvm.memcpy.p0.p0.i64(ptr noundef nonnull align 1 dereferenceable(24) %24, ptr noundef nonnull align 16 dereferenceable(24) %3, i64 24, i1 false)
  call void @llvm.lifetime.end.p0(i64 24, ptr nonnull %3)
  tail call fastcc void @credential_apply_config(ptr noundef %0, ptr noundef nonnull %1)
  %26 = getelementptr inbounds nuw i8, ptr %1, i64 8
  %27 = load i64, ptr %26, align 8, !tbaa !38
  %.not19 = icmp eq i64 %27, 0
  br i1 %.not19, label %._crit_edge, label %.lr.ph

.lr.ph:                                           ; preds = %23, %.lr.ph
  %indvars.iv = phi i64 [ %indvars.iv.next, %.lr.ph ], [ 0, %23 ]
  %28 = load ptr, ptr %1, align 8, !tbaa !40
  %29 = getelementptr inbounds nuw %struct.string_list_item, ptr %28, i64 %indvars.iv
  %30 = load ptr, ptr %29, align 8, !tbaa !41
  tail call fastcc void @credential_do(ptr noundef nonnull %1, ptr noundef %30, ptr noundef nonnull @.str.24)
  %indvars.iv.next = add nuw nsw i64 %indvars.iv, 1
  %31 = load i64, ptr %26, align 8, !tbaa !38
  %32 = icmp ugt i64 %31, %indvars.iv.next
  br i1 %32, label %.lr.ph, label %._crit_edge, !llvm.loop !57

._crit_edge:                                      ; preds = %.lr.ph, %23
  %33 = load i16, ptr %5, align 8
  %34 = or i16 %33, 2
  store i16 %34, ptr %5, align 8
  br label %35

35:                                               ; preds = %14, %17, %2, %._crit_edge
  ret void
}